target datalayout = "e-m:e-p270:32:32-p271:32:32-p272:64:64-i64:64-i128:128-f80:128-n8:16:32:64-S128"
target triple = "x86_64-pc-linux-gnu"

%struct.obj_itr = type { ptr, ptr }

@count_objects_size.rbimpl_id = internal global i64 0, align 8
@.str.17 = private unnamed_addr constant [6 x i8] c"TOTAL\00", align 1

; Function Attrs: inlinehint nounwind sspstrong willreturn memory(read) uwtable
define internal i64 @rb_intern_const(ptr noundef nonnull %0) #9 {
  %2 = alloca ptr, align 8
  %3 = alloca i64, align 8
  store ptr %0, ptr %2, align 8, !tbaa !39
  call void @llvm.lifetime.start.p0(i64 8, ptr %3) #15
  %4 = load ptr, ptr %2, align 8, !tbaa !39
  %5 = call i64 @strlen(ptr noundef %4) #17
  store i64 %5, ptr %3, align 8, !tbaa !6
  %6 = load ptr, ptr %2, align 8, !tbaa !39
  %7 = load i64, ptr %3, align 8, !tbaa !6
  %8 = call i64 @rb_intern2(ptr noundef %6, i64 noundef %7)
  call void @llvm.lifetime.end.p0(i64 8, ptr %3) #15
  ret i64 %8
}

; Function Attrs: inlinehint nounwind sspstrong willreturn memory(none) uwtable
define internal i64 @RB_INT2FIX(i64 noundef %0) #4 {
  %2 = alloca i64, align 8
  %3 = alloca i64, align 8
  %4 = alloca i64, align 8
  %5 = alloca i64, align 8
  %6 = alloca i64, align 8
  %7 = alloca i64, align 8
  store i64 %0, ptr %2, align 8, !tbaa !6
  call void @llvm.lifetime.start.p0(i64 8, ptr %3) #15
  %8 = load i64, ptr %2, align 8, !tbaa !6
  store i64 %8, ptr %3, align 8, !tbaa !6
  call void @llvm.lifetime.start.p0(i64 8, ptr %4) #15
  %9 = load i64, ptr %3, align 8, !tbaa !6
  %10 = shl i64 %9, 1
  %11 = add i64 %10, 1
  store i64 %11, ptr %4, align 8, !tbaa !6
  call void @llvm.lifetime.start.p0(i64 8, ptr %5) #15
  %12 = load i64, ptr %4, align 8, !tbaa !6
  store i64 %12, ptr %5, align 8, !tbaa !6
  call void @llvm.lifetime.start.p0(i64 8, ptr %6) #15
  %13 = load i64, ptr %5, align 8, !tbaa !6
  store i64 %13, ptr %6, align 8, !tbaa !6
  call void @llvm.lifetime.start.p0(i64 8, ptr %7) #15
  %14 = load i64, ptr %6, align 8, !tbaa !6
  store i64 %14, ptr %7, align 8, !tbaa !6
  %15 = load i64, ptr %7, align 8, !tbaa !6
  call void @llvm.lifetime.end.p0(i64 8, ptr %7) #15
  call void @llvm.lifetime.end.p0(i64 8, ptr %6) #15
  call void @llvm.lifetime.end.p0(i64 8, ptr %5) #15
  call void @llvm.lifetime.end.p0(i64 8, ptr %4) #15
  call void @llvm.lifetime.end.p0(i64 8, ptr %3) #15
  ret i64 %15
}

; Function Attrs: inlinehint nounwind sspstrong memory(argmem: readwrite, inaccessiblemem: readwrite) uwtable
define internal i64 @rbimpl_intern_const(ptr noundef nonnull %0, ptr noundef nonnull %1) #10 {
  %3 = alloca ptr, align 8
  %4 = alloca ptr, align 8
  store ptr %0, ptr %3, align 8, !tbaa !12
  store ptr %1, ptr %4, align 8, !tbaa !39
  br label %5

5:                                                ; preds = %10, %2
  %6 = load ptr, ptr %3, align 8, !tbaa !12
  %7 = load i64, ptr %6, align 8, !tbaa !6
  %8 = icmp ne i64 %7, 0
  %9 = xor i1 %8, true
  br i1 %9, label %10, label %14

10:                                               ; preds = %5
  %11 = load ptr, ptr %4, align 8, !tbaa !39
  %12 = call i64 @rb_intern_const(ptr noundef %11) #17
  %13 = load ptr, ptr %3, align 8, !tbaa !12
  store i64 %12, ptr %13, align 8, !tbaa !6
  br label %5, !llvm.loop !57

14:                                               ; preds = %5
  %15 = load ptr, ptr %3, align 8, !tbaa !12
  %16 = load i64, ptr %15, align 8, !tbaa !6
  ret i64 %16
}

; Function Attrs: inlinehint nounwind sspstrong uwtable
define internal i64 @rb_ull2num_inline(i64 noundef %0) #3 {
  %2 = alloca i64, align 8
  %3 = alloca i64, align 8
  store i64 %0, ptr %3, align 8, !tbaa !33
  %4 = load i64, ptr %3, align 8, !tbaa !33
  %5 = icmp ult i64 %4, 4611686018427387904
  br i1 %5, label %6, label %9

6:                                                ; preds = %1
  %7 = load i64, ptr %3, align 8, !tbaa !33
  %8 = call i64 @RB_INT2FIX(i64 noundef %7) #18
  store i64 %8, ptr %2, align 8
  br label %12

9:                                                ; preds = %1
  %10 = load i64, ptr %3, align 8, !tbaa !33
  %11 = call i64 @rb_ull2inum(i64 noundef %10)
  store i64 %11, ptr %2, align 8
  br label %12

12:                                               ; preds = %9, %6
  %13 = load i64, ptr %2, align 8
  ret i64 %13
}

; Function Attrs: nounwind sspstrong uwtable
define internal void @each_object_with_flags(ptr noundef %0, ptr noundef %1) #0 {
  %3 = alloca ptr, align 8
  %4 = alloca ptr, align 8
  %5 = alloca %struct.obj_itr, align 8
  store ptr %0, ptr %3, align 8, !tbaa !46
  store ptr %1, ptr %4, align 8, !tbaa !46
  call void @llvm.lifetime.start.p0(i64 16, ptr %5) #15
  %6 = load ptr, ptr %3, align 8, !tbaa !46
  %7 = getelementptr inbounds nuw %struct.obj_itr, ptr %5, i32 0, i32 0
  store ptr %6, ptr %7, align 8, !tbaa !47
  %8 = load ptr, ptr %4, align 8, !tbaa !46
  %9 = getelementptr inbounds nuw %struct.obj_itr, ptr %5, i32 0, i32 1
  store ptr %8, ptr %9, align 8, !tbaa !49
  call void @rb_objspace_each_objects(ptr noundef @heap_iter, ptr noundef %5)
  call void @llvm.lifetime.end.p0(i64 16, ptr %5) #15
  ret void
}

; Function Attrs: nounwind sspstrong uwtable
define internal i64 @count_objects_size(i32 noundef %0, ptr noundef %1, i64 noundef %2) #0 {
  %4 = alloca i32, align 4
  %5 = alloca ptr, align 8
  %6 = alloca i64, align 8
  %7 = alloca [32 x i64], align 16
  %8 = alloca i64, align 8
  %9 = alloca i32, align 4
  %10 = alloca i64, align 8
  %11 = alloca i64, align 8
  %12 = alloca i64, align 8
  %13 = alloca i64, align 8
  store i32 %0, ptr %4, align 4, !tbaa !10
  store ptr %1, ptr %5, align 8, !tbaa !12
  store i64 %2, ptr %6, align 8, !tbaa !6
  call void @llvm.lifetime.start.p0(i64 256, ptr %7) #15
  call void @llvm.lifetime.start.p0(i64 8, ptr %8) #15
  store i64 0, ptr %8, align 8, !tbaa !6
  call void @llvm.lifetime.start.p0(i64 4, ptr %9) #15
  call void @llvm.lifetime.start.p0(i64 8, ptr %10) #15
  %14 = load i32, ptr %4, align 4, !tbaa !10
  %15 = load ptr, ptr %5, align 8, !tbaa !12
  %16 = call i64 @setup_hash(i32 noundef %14, ptr noundef %15)
  store i64 %16, ptr %10, align 8, !tbaa !6
  store i32 0, ptr %9, align 4, !tbaa !10
  br label %17

17:                                               ; preds = %24, %3
  %18 = load i32, ptr %9, align 4, !tbaa !10
  %19 = icmp ule i32 %18, 31
  br i1 %19, label %20, label %27

20:                                               ; preds = %17
  %21 = load i32, ptr %9, align 4, !tbaa !10
  %22 = zext i32 %21 to i64
  %23 = getelementptr inbounds nuw [32 x i64], ptr %7, i64 0, i64 %22
  store i64 0, ptr %23, align 8, !tbaa !6
  br label %24

24:                                               ; preds = %20
  %25 = load i32, ptr %9, align 4, !tbaa !10
  %26 = add i32 %25, 1
  store i32 %26, ptr %9, align 4, !tbaa !10
  br label %17, !llvm.loop !17

27:                                               ; preds = %17
  %28 = getelementptr inbounds [32 x i64], ptr %7, i64 0, i64 0
  call void @each_object_with_flags(ptr noundef @cos_i, ptr noundef %28)
  store i32 0, ptr %9, align 4, !tbaa !10
  br label %29

29:                                               ; preds = %56, %27
  %30 = load i32, ptr %9, align 4, !tbaa !10
  %31 = icmp ule i32 %30, 31
  br i1 %31, label %32, label %59

32:                                               ; preds = %29
  %33 = load i32, ptr %9, align 4, !tbaa !10
  %34 = zext i32 %33 to i64
  %35 = getelementptr inbounds nuw [32 x i64], ptr %7, i64 0, i64 %34
  %36 = load i64, ptr %35, align 8, !tbaa !6
  %37 = icmp ne i64 %36, 0
  br i1 %37, label %38, label %55

38:                                               ; preds = %32
  call void @llvm.lifetime.start.p0(i64 8, ptr %11) #15
  %39 = load i32, ptr %9, align 4, !tbaa !10
  %40 = call i64 @type2sym(i32 noundef %39)
  store i64 %40, ptr %11, align 8, !tbaa !6
  %41 = load i32, ptr %9, align 4, !tbaa !10
  %42 = zext i32 %41 to i64
  %43 = getelementptr inbounds nuw [32 x i64], ptr %7, i64 0, i64 %42
  %44 = load i64, ptr %43, align 8, !tbaa !6
  %45 = load i64, ptr %8, align 8, !tbaa !6
  %46 = add i64 %45, %44
  store i64 %46, ptr %8, align 8, !tbaa !6
  %47 = load i64, ptr %10, align 8, !tbaa !6
  %48 = load i64, ptr %11, align 8, !tbaa !6
  %49 = load i32, ptr %9, align 4, !tbaa !10
  %50 = zext i32 %49 to i64
  %51 = getelementptr inbounds nuw [32 x i64], ptr %7, i64 0, i64 %50
  %52 = load i64, ptr %51, align 8, !tbaa !6
  %53 = call i64 @rb_ull2num_inline(i64 noundef %52)
  %54 = call i64 @rb_hash_aset(i64 noundef %47, i64 noundef %48, i64 noundef %53)
  call void @llvm.lifetime.end.p0(i64 8, ptr %11) #15
  br label %55

55:                                               ; preds = %38, %32
  br label %56

56:                                               ; preds = %55
  %57 = load i32, ptr %9, align 4, !tbaa !10
  %58 = add i32 %57, 1
  store i32 %58, ptr %9, align 4, !tbaa !10
  br label %29, !llvm.loop !19

59:                                               ; preds = %29
  %60 = load i64, ptr %10, align 8, !tbaa !6
  %61 = call i64 @rbimpl_intern_const(ptr noundef @count_objects_size.rbimpl_id, ptr noundef @.str.17) #16
  store i64 %61, ptr %13, align 8, !tbaa !6
  %62 = load i64, ptr %13, align 8, !tbaa !6
  %63 = call i64 @rb_id2sym(i64 noundef %62)
  store i64 %63, ptr %12, align 8, !tbaa !6
  %64 = load i64, ptr %12, align 8, !tbaa !6
  %65 = load i64, ptr %8, align 8, !tbaa !6
  %66 = call i64 @rb_ull2num_inline(i64 noundef %65)
  %67 = call i64 @rb_hash_aset(i64 noundef %60, i64 noundef %64, i64 noundef %66)
  %68 = load i64, ptr %10, align 8, !tbaa !6
  call void @llvm.lifetime.end.p0(i64 8, ptr %10) #15
  call void @llvm.lifetime.end.p0(i64 4, ptr %9) #15
  call void @llvm.lifetime.end.p0(i64 8, ptr %8) #15
  call void @llvm.lifetime.end.p0(i64 256, ptr %7) #15
  ret i64 %68
}