; Function Attrs: nounwind sspstrong uwtable
define internal i64 @count_objects_size(i32 noundef %0, ptr noundef readonly captures(none) %1, i64 %2) #0 {
  %4 = alloca %struct.obj_itr, align 8
  %5 = alloca [32 x i64], align 16
  call void @llvm.lifetime.start.p0(i64 256, ptr nonnull %5) #7
  %6 = tail call fastcc i64 @setup_hash(i32 noundef %0, ptr noundef %1)
  call void @llvm.memset.p0.i64(ptr noundef nonnull align 16 dereferenceable(256) %5, i8 0, i64 256, i1 false), !tbaa !6
  call void @llvm.lifetime.start.p0(i64 16, ptr nonnull %4) #7
  store ptr @cos_i, ptr %4, align 8, !tbaa !10
  %7 = getelementptr inbounds nuw i8, ptr %4, i64 8
  store ptr %5, ptr %7, align 8, !tbaa !13
  call void @rb_objspace_each_objects(ptr noundef nonnull @heap_iter, ptr noundef nonnull %4) #7
  call void @llvm.lifetime.end.p0(i64 16, ptr nonnull %4) #7
  br label %8

8:                                                ; preds = %3, %23
  %indvars.iv = phi i64 [ 0, %3 ], [ %indvars.iv.next, %23 ]
  %.024 = phi i64 [ 0, %3 ], [ %.1, %23 ]
  %9 = getelementptr inbounds nuw [32 x i64], ptr %5, i64 0, i64 %indvars.iv
  %10 = load i64, ptr %9, align 8, !tbaa !6
  %.not = icmp eq i64 %10, 0
  br i1 %.not, label %23, label %11

11:                                               ; preds = %8
  %12 = trunc nuw nsw i64 %indvars.iv to i32
  %13 = call fastcc i64 @type2sym(i32 noundef %12)
  %14 = load i64, ptr %9, align 8, !tbaa !6
  %15 = add i64 %14, %.024
  %16 = icmp ult i64 %14, 4611686018427387904
  br i1 %16, label %17, label %20

17:                                               ; preds = %11
  %18 = shl nuw nsw i64 %14, 1
  %19 = or disjoint i64 %18, 1
  br label %rb_ull2num_inline.exit

20:                                               ; preds = %11
  %21 = call i64 @rb_ull2inum(i64 noundef %14) #7
  br label %rb_ull2num_inline.exit

rb_ull2num_inline.exit:                           ; preds = %17, %20
  %.0.i = phi i64 [ %19, %17 ], [ %21, %20 ]
  %22 = call i64 @rb_hash_aset(i64 noundef %6, i64 noundef %13, i64 noundef %.0.i) #7
  br label %23

23:                                               ; preds = %8, %rb_ull2num_inline.exit
  %.1 = phi i64 [ %15, %rb_ull2num_inline.exit ], [ %.024, %8 ]
  %indvars.iv.next = add nuw nsw i64 %indvars.iv, 1
  %exitcond.not = icmp eq i64 %indvars.iv.next, 32
  br i1 %exitcond.not, label %24, label %8, !llvm.loop !16

24:                                               ; preds = %23
  %.pr.i = load i64, ptr @count_objects_size.rbimpl_id, align 8, !tbaa !6
  %.not4.i = icmp eq i64 %.pr.i, 0
  br i1 %.not4.i, label %.lr.ph.i, label %rbimpl_intern_const.exit

.lr.ph.i:                                         ; preds = %24, %.lr.ph.i
  %25 = call i64 @rb_intern2(ptr noundef nonnull @.str.17, i64 noundef 5) #7
  store i64 %25, ptr @count_objects_size.rbimpl_id, align 8, !tbaa !6
  %.not.i = icmp eq i64 %25, 0
  br i1 %.not.i, label %.lr.ph.i, label %rbimpl_intern_const.exit, !llvm.loop !18

rbimpl_intern_const.exit:                         ; preds = %.lr.ph.i, %24
  %.lcssa.i = phi i64 [ %.pr.i, %24 ], [ %25, %.lr.ph.i ]
  %26 = call i64 @rb_id2sym(i64 noundef %.lcssa.i) #7
  %27 = icmp ult i64 %.1, 4611686018427387904
  br i1 %27, label %28, label %31

28:                                               ; preds = %rbimpl_intern_const.exit
  %29 = shl nuw nsw i64 %.1, 1
  %30 = or disjoint i64 %29, 1
  br label %rb_ull2num_inline.exit21

31:                                               ; preds = %rbimpl_intern_const.exit
  %32 = call i64 @rb_ull2inum(i64 noundef %.1) #7
  br label %rb_ull2num_inline.exit21

rb_ull2num_inline.exit21:                         ; preds = %28, %31
  %.0.i20 = phi i64 [ %30, %28 ], [ %32, %31 ]
  %33 = call i64 @rb_hash_aset(i64 noundef %6, i64 noundef %26, i64 noundef %.0.i20) #7
  call void @llvm.lifetime.end.p0(i64 256, ptr nonnull %5) #7
  ret i64 %6
}